target datalayout = "e-m:e-p270:32:32-p271:32:32-p272:64:64-i64:64-i128:128-f80:128-n8:16:32:64-S128"
target triple = "x86_64-pc-linux-gnu"

@.str.1 = private unnamed_addr constant [8 x i8] c"shmem.c\00", align 1
@.str.6 = private unnamed_addr constant [46 x i8] c"requested shared memory size overflows size_t\00", align 1
@__func__.mul_size = private unnamed_addr constant [9 x i8] c"mul_size\00", align 1

; Function Attrs: nounwind uwtable
define dso_local i64 @mul_size(i64 noundef %0, i64 noundef %1) #0 {
  %3 = alloca i64, align 8
  %4 = alloca i64, align 8
  %5 = alloca i64, align 8
  %6 = alloca i64, align 8
  %7 = alloca i32, align 4
  store i64 %0, ptr %4, align 8
  store i64 %1, ptr %5, align 8
  call void @llvm.lifetime.start.p0(i64 8, ptr %6) #6
  %8 = load i64, ptr %4, align 8
  %9 = icmp eq i64 %8, 0
  br i1 %9, label %13, label %10

10:                                               ; preds = %2
  %11 = load i64, ptr %5, align 8
  %12 = icmp eq i64 %11, 0
  br i1 %12, label %13, label %14

13:                                               ; preds = %10, %2
  store i64 0, ptr %3, align 8
  store i32 1, ptr %7, align 4
  br label %37

14:                                               ; preds = %10
  %15 = load i64, ptr %4, align 8
  %16 = load i64, ptr %5, align 8
  %17 = mul i64 %15, %16
  store i64 %17, ptr %6, align 8
  %18 = load i64, ptr %6, align 8
  %19 = load i64, ptr %5, align 8
  %20 = udiv i64 %18, %19
  %21 = load i64, ptr %4, align 8
  %22 = icmp ne i64 %20, %21
  br i1 %22, label %23, label %35

23:                                               ; preds = %14
  br label %24

24:                                               ; preds = %23
  br i1 true, label %25, label %27

25:                                               ; preds = %24
  %26 = call zeroext i1 @errstart_cold(i32 noundef 21, ptr noundef null) #7
  br i1 %26, label %29, label %32

27:                                               ; preds = %24
  %28 = call zeroext i1 @errstart(i32 noundef 21, ptr noundef null)
  br i1 %28, label %29, label %32

29:                                               ; preds = %27, %25
  %30 = call i32 @errcode(i32 noundef 261)
  %31 = call i32 (ptr, ...) @errmsg(ptr noundef @.str.6)
  call void @errfinish(ptr noundef @.str.1, i32 noundef 516, ptr noundef @__func__.mul_size)
  br label %32

32:                                               ; preds = %29, %27, %25
  unreachable

33:                                               ; No predecessors!
  br label %34

34:                                               ; preds = %33
  br label %35

35:                                               ; preds = %34, %14
  %36 = load i64, ptr %6, align 8
  store i64 %36, ptr %3, align 8
  store i32 1, ptr %7, align 4
  br label %37

37:                                               ; preds = %35, %13
  call void @llvm.lifetime.end.p0(i64 8, ptr %6) #6
  %38 = load i64, ptr %3, align 8
  ret i64 %38
}