; Function Attrs: nounwind uwtable
define dso_local noundef i64 @mul_size(i64 noundef %0, i64 noundef %1) local_unnamed_addr #1 {
  %3 = icmp eq i64 %0, 0
  %4 = icmp eq i64 %1, 0
  %or.cond = or i1 %3, %4
  br i1 %or.cond, label %11, label %5

5:                                                ; preds = %2
  %mul = tail call { i64, i1 } @llvm.umul.with.overflow.i64(i64 %1, i64 %0)
  %mul.ov = extractvalue { i64, i1 } %mul, 1
  br i1 %mul.ov, label %6, label %10

6:                                                ; preds = %5
  %7 = tail call zeroext i1 @errstart_cold(i32 noundef 21, ptr noundef null) #8
  tail call void @llvm.assume(i1 %7)
  %8 = tail call i32 @errcode(i32 noundef 261) #9
  %9 = tail call i32 (ptr, ...) @errmsg(ptr noundef nonnull @.str.6) #9
  tail call void @errfinish(ptr noundef nonnull @.str.1, i32 noundef 516, ptr noundef nonnull @__func__.mul_size) #9
  unreachable

10:                                               ; preds = %5
  %mul.val = extractvalue { i64, i1 } %mul, 0
  br label %11

11:                                               ; preds = %2, %10
  %.0 = phi i64 [ %mul.val, %10 ], [ 0, %2 ]
  ret i64 %.0
}